target datalayout = "e-m:e-p270:32:32-p271:32:32-p272:64:64-i64:64-i128:128-f80:128-n8:16:32:64-S128"
target triple = "x86_64-pc-linux-gnu"

%class.XDriverRequest = type { i32, i32 }
%class.XDriver = type { %class.ConcurrentGCThread.base, %class.XMessagePort, %class.XRendezvousPort }
%class.ConcurrentGCThread.base = type { %class.NamedThread.base, i8, i8 }
%class.NamedThread.base = type <{ %class.NonJavaThread, ptr, ptr, i32 }>
%class.NonJavaThread = type { %class.Thread, ptr }
%class.Thread = type { %class.ThreadShadow.base, i64, [43 x i64], ptr, ptr, i32, ptr, i64, i64, %class.ThreadLocalAllocBuffer, i64, %class.ThreadHeapSampler, %class.ThreadStatisticalInfo, %class.JfrThreadLocal, ptr, ptr, ptr, ptr, ptr, ptr, i64, i32, i32, ptr, i32, i32, i32, i32, i8, ptr }
%class.ThreadShadow.base = type <{ ptr, ptr, ptr, i32 }>
%class.ThreadLocalAllocBuffer = type <{ ptr, ptr, ptr, ptr, ptr, i64, i64, i64, i64, i32, i32, i32, i32, i64, %class.AdaptiveWeightedAverage, [4 x i8] }>
%class.AdaptiveWeightedAverage = type { float, i32, i32, i8, float }
%class.ThreadHeapSampler = type { i64 }
%class.ThreadStatisticalInfo = type { i64, i64 }
%class.JfrThreadLocal = type <{ ptr, ptr, ptr, ptr, ptr, ptr, ptr, ptr, ptr, ptr, %class.RefCountHandle, i64, i64, i64, i64, i64, i64, i64, i64, i64, i64, i64, i32, i32, i32, i16, i8, i8, i8, i8, i8, [5 x i8] }>
%class.RefCountHandle = type { ptr }
%class.XMessagePort = type { %class.Monitor, i8, %class.XDriverRequest, i64, %class.XList }
%class.Monitor = type { %class.Mutex }
%class.Mutex = type { ptr, %class.PlatformMonitor, ptr }
%class.PlatformMonitor = type { %class.PlatformMutex, %union.pthread_cond_t }
%class.PlatformMutex = type { %union.pthread_mutex_t }
%union.pthread_mutex_t = type { %struct.__pthread_mutex_s }
%struct.__pthread_mutex_s = type { i32, i32, i32, i32, i32, i16, i16, %struct.__pthread_internal_list }
%struct.__pthread_internal_list = type { ptr, ptr }
%union.pthread_cond_t = type { %struct.__pthread_cond_s }
%struct.__pthread_cond_s = type { %union.__atomic_wide_counter, %union.__atomic_wide_counter, [2 x i32], [2 x i32], i32, i32, [2 x i32] }
%union.__atomic_wide_counter = type { i64 }
%class.XList = type { %class.XListNode, i64 }
%class.XListNode = type { ptr, ptr }
%class.XRendezvousPort = type { %class.XMessagePort.3 }
%class.XMessagePort.3 = type { %class.Monitor, i8, i8, i64, %class.XList.4 }
%class.XList.4 = type { %class.XListNode.5, i64 }
%class.XListNode.5 = type { ptr, ptr }
%class.MonitorLocker = type <{ %class.MutexLockerImpl, i32, [4 x i8] }>
%class.MutexLockerImpl = type { ptr }

@g_assert_poison = external global ptr, align 8
@.str.31 = private unnamed_addr constant [35 x i8] c"src/hotspot/share/gc/x/xDriver.cpp\00", align 1
@.str.32 = private unnamed_addr constant [26 x i8] c"Unsupported GC cause (%s)\00", align 1

; Function Attrs: mustprogress nounwind uwtable
define linkonce_odr hidden void @_ZN15MutexLockerImplD2Ev(ptr noundef nonnull align 8 dereferenceable(8) %0) unnamed_addr #1 comdat align 2 {
  %2 = alloca ptr, align 8
  store ptr %0, ptr %2, align 8
  %3 = load ptr, ptr %2, align 8
  %4 = getelementptr inbounds %class.MutexLockerImpl, ptr %3, i32 0, i32 0
  %5 = load ptr, ptr %4, align 8
  %6 = icmp ne ptr %5, null
  br i1 %6, label %7, label %10

7:                                                ; preds = %1
  %8 = getelementptr inbounds %class.MutexLockerImpl, ptr %3, i32 0, i32 0
  %9 = load ptr, ptr %8, align 8
  call void @_ZN5Mutex6unlockEv(ptr noundef nonnull align 8 dereferenceable(104) %9)
  br label %10

10:                                               ; preds = %7, %1
  ret void
}

; Function Attrs: mustprogress nounwind uwtable
define linkonce_odr hidden noundef ptr @_ZNK13MonitorLocker10as_monitorEv(ptr noundef nonnull align 8 dereferenceable(12) %0) #1 comdat align 2 {
  %2 = alloca ptr, align 8
  store ptr %0, ptr %2, align 8
  %3 = load ptr, ptr %2, align 8
  %4 = getelementptr inbounds %class.MutexLockerImpl, ptr %3, i32 0, i32 0
  %5 = load ptr, ptr %4, align 8
  ret ptr %5
}

; Function Attrs: mustprogress nounwind uwtable
define linkonce_odr hidden void @_ZN15MutexLockerImplC2EP5MutexNS0_18SafepointCheckFlagE(ptr noundef nonnull align 8 dereferenceable(8) %0, ptr noundef %1, i32 noundef %2) unnamed_addr #1 comdat align 2 {
  %4 = alloca ptr, align 8
  %5 = alloca ptr, align 8
  %6 = alloca i32, align 4
  %7 = alloca i8, align 1
  store ptr %0, ptr %4, align 8
  store ptr %1, ptr %5, align 8
  store i32 %2, ptr %6, align 4
  %8 = load ptr, ptr %4, align 8
  %9 = getelementptr inbounds %class.MutexLockerImpl, ptr %8, i32 0, i32 0
  %10 = load ptr, ptr %5, align 8
  store ptr %10, ptr %9, align 8
  %11 = load i32, ptr %6, align 4
  %12 = icmp eq i32 %11, 1
  %13 = zext i1 %12 to i8
  store i8 %13, ptr %7, align 1
  %14 = getelementptr inbounds %class.MutexLockerImpl, ptr %8, i32 0, i32 0
  %15 = load ptr, ptr %14, align 8
  %16 = icmp ne ptr %15, null
  br i1 %16, label %17, label %27

17:                                               ; preds = %3
  %18 = load i8, ptr %7, align 1
  %19 = trunc i8 %18 to i1
  br i1 %19, label %20, label %23

20:                                               ; preds = %17
  %21 = getelementptr inbounds %class.MutexLockerImpl, ptr %8, i32 0, i32 0
  %22 = load ptr, ptr %21, align 8
  call void @_ZN5Mutex28lock_without_safepoint_checkEv(ptr noundef nonnull align 8 dereferenceable(104) %22)
  br label %26

23:                                               ; preds = %17
  %24 = getelementptr inbounds %class.MutexLockerImpl, ptr %8, i32 0, i32 0
  %25 = load ptr, ptr %24, align 8
  call void @_ZN5Mutex4lockEv(ptr noundef nonnull align 8 dereferenceable(104) %25)
  br label %26

26:                                               ; preds = %23, %20
  br label %27

27:                                               ; preds = %26, %3
  ret void
}

; Function Attrs: mustprogress nounwind uwtable
define linkonce_odr hidden void @_ZN13MonitorLockerD2Ev(ptr noundef nonnull align 8 dereferenceable(12) %0) unnamed_addr #1 comdat align 2 {
  %2 = alloca ptr, align 8
  store ptr %0, ptr %2, align 8
  %3 = load ptr, ptr %2, align 8
  call void @_ZN15MutexLockerImplD2Ev(ptr noundef nonnull align 8 dereferenceable(8) %3) #8
  ret void
}

; Function Attrs: mustprogress nounwind uwtable
define linkonce_odr hidden void @_ZN13MonitorLocker6notifyEv(ptr noundef nonnull align 8 dereferenceable(12) %0) #1 comdat align 2 {
  %2 = alloca ptr, align 8
  store ptr %0, ptr %2, align 8
  %3 = load ptr, ptr %2, align 8
  %4 = call noundef ptr @_ZNK13MonitorLocker10as_monitorEv(ptr noundef nonnull align 8 dereferenceable(12) %3)
  call void @_ZN7Monitor6notifyEv(ptr noundef nonnull align 8 dereferenceable(104) %4)
  ret void
}

; Function Attrs: mustprogress nounwind uwtable
define linkonce_odr hidden void @_ZN13MonitorLockerC2EP7MonitorN5Mutex18SafepointCheckFlagE(ptr noundef nonnull align 8 dereferenceable(12) %0, ptr noundef %1, i32 noundef %2) unnamed_addr #1 comdat align 2 {
  %4 = alloca ptr, align 8
  %5 = alloca ptr, align 8
  %6 = alloca i32, align 4
  store ptr %0, ptr %4, align 8
  store ptr %1, ptr %5, align 8
  store i32 %2, ptr %6, align 4
  %7 = load ptr, ptr %4, align 8
  %8 = load ptr, ptr %5, align 8
  %9 = load i32, ptr %6, align 4
  call void @_ZN15MutexLockerImplC2EP5MutexNS0_18SafepointCheckFlagE(ptr noundef nonnull align 8 dereferenceable(8) %7, ptr noundef %8, i32 noundef %9)
  %10 = getelementptr inbounds %class.MonitorLocker, ptr %7, i32 0, i32 1
  %11 = load i32, ptr %6, align 4
  store i32 %11, ptr %10, align 8
  ret void
}

; Function Attrs: mustprogress nounwind uwtable
define linkonce_odr hidden void @_ZN15XRendezvousPort6signalEv(ptr noundef nonnull align 8 dereferenceable(144) %0) #1 comdat align 2 {
  %2 = alloca ptr, align 8
  %3 = alloca i8, align 1
  store ptr %0, ptr %2, align 8
  %4 = load ptr, ptr %2, align 8
  %5 = getelementptr inbounds %class.XRendezvousPort, ptr %4, i32 0, i32 0
  store i8 1, ptr %3, align 1
  call void @_ZN12XMessagePortIbE9send_syncERKb(ptr noundef nonnull align 8 dereferenceable(144) %5, ptr noundef nonnull align 1 dereferenceable(1) %3)
  ret void
}

; Function Attrs: mustprogress nounwind uwtable
define linkonce_odr hidden void @_ZN12XMessagePortI14XDriverRequestE10send_asyncERKS0_(ptr noundef nonnull align 8 dereferenceable(152) %0, ptr noundef nonnull align 4 dereferenceable(8) %1) #1 comdat align 2 {
  %3 = alloca ptr, align 8
  %4 = alloca ptr, align 8
  %5 = alloca %class.MonitorLocker, align 8
  store ptr %0, ptr %3, align 8
  store ptr %1, ptr %4, align 8
  %6 = load ptr, ptr %3, align 8
  %7 = getelementptr inbounds %class.XMessagePort, ptr %6, i32 0, i32 0
  call void @_ZN13MonitorLockerC2EP7MonitorN5Mutex18SafepointCheckFlagE(ptr noundef nonnull align 8 dereferenceable(12) %5, ptr noundef %7, i32 noundef 1)
  %8 = getelementptr inbounds %class.XMessagePort, ptr %6, i32 0, i32 1
  %9 = load i8, ptr %8, align 8
  %10 = trunc i8 %9 to i1
  br i1 %10, label %15, label %11

11:                                               ; preds = %2
  %12 = load ptr, ptr %4, align 8
  %13 = getelementptr inbounds %class.XMessagePort, ptr %6, i32 0, i32 2
  call void @llvm.memcpy.p0.p0.i64(ptr align 4 %13, ptr align 4 %12, i64 8, i1 false)
  %14 = getelementptr inbounds %class.XMessagePort, ptr %6, i32 0, i32 1
  store i8 1, ptr %14, align 8
  call void @_ZN13MonitorLocker6notifyEv(ptr noundef nonnull align 8 dereferenceable(12) %5)
  br label %15

15:                                               ; preds = %11, %2
  call void @_ZN13MonitorLockerD2Ev(ptr noundef nonnull align 8 dereferenceable(12) %5) #8
  ret void
}

; Function Attrs: mustprogress nounwind uwtable
define hidden noundef i32 @_ZNK14XDriverRequest5causeEv(ptr noundef nonnull align 4 dereferenceable(8) %0) #1 align 2 {
  %2 = alloca ptr, align 8
  store ptr %0, ptr %2, align 8
  %3 = load ptr, ptr %2, align 8
  %4 = getelementptr inbounds %class.XDriverRequest, ptr %3, i32 0, i32 0
  %5 = load i32, ptr %4, align 4
  ret i32 %5
}

; Function Attrs: mustprogress nounwind uwtable
define hidden void @_ZN7XDriver7collectERK14XDriverRequest(ptr noundef nonnull align 8 dereferenceable(1216) %0, ptr noundef nonnull align 4 dereferenceable(8) %1) #1 align 2 {
  %3 = alloca ptr, align 8
  %4 = alloca ptr, align 8
  store ptr %0, ptr %3, align 8
  store ptr %1, ptr %4, align 8
  %5 = load ptr, ptr %3, align 8
  %6 = load ptr, ptr %4, align 8
  %7 = call noundef i32 @_ZNK14XDriverRequest5causeEv(ptr noundef nonnull align 4 dereferenceable(8) %6)
  switch i32 %7, label %19 [
    i32 7, label %8
    i32 6, label %8
    i32 8, label %8
    i32 9, label %8
    i32 23, label %8
    i32 0, label %8
    i32 1, label %8
    i32 2, label %8
    i32 4, label %8
    i32 17, label %8
    i32 15, label %8
    i32 28, label %11
    i32 29, label %11
    i32 30, label %11
    i32 31, label %11
    i32 32, label %11
    i32 33, label %11
    i32 14, label %11
    i32 16, label %11
    i32 5, label %14
    i32 10, label %16
  ]

8:                                                ; preds = %2, %2, %2, %2, %2, %2, %2, %2, %2, %2, %2
  %9 = getelementptr inbounds %class.XDriver, ptr %5, i32 0, i32 1
  %10 = load ptr, ptr %4, align 8
  call void @_ZN12XMessagePortI14XDriverRequestE9send_syncERKS0_(ptr noundef nonnull align 8 dereferenceable(152) %9, ptr noundef nonnull align 4 dereferenceable(8) %10)
  br label %26

11:                                               ; preds = %2, %2, %2, %2, %2, %2, %2, %2
  %12 = getelementptr inbounds %class.XDriver, ptr %5, i32 0, i32 1
  %13 = load ptr, ptr %4, align 8
  call void @_ZN12XMessagePortI14XDriverRequestE10send_asyncERKS0_(ptr noundef nonnull align 8 dereferenceable(152) %12, ptr noundef nonnull align 4 dereferenceable(8) %13)
  br label %26

14:                                               ; preds = %2
  %15 = getelementptr inbounds %class.XDriver, ptr %5, i32 0, i32 2
  call void @_ZN15XRendezvousPort6signalEv(ptr noundef nonnull align 8 dereferenceable(144) %15)
  br label %26

16:                                               ; preds = %2
  call void @_ZN11XBreakpoint8start_gcEv()
  %17 = getelementptr inbounds %class.XDriver, ptr %5, i32 0, i32 1
  %18 = load ptr, ptr %4, align 8
  call void @_ZN12XMessagePortI14XDriverRequestE10send_asyncERKS0_(ptr noundef nonnull align 8 dereferenceable(152) %17, ptr noundef nonnull align 4 dereferenceable(8) %18)
  br label %26

19:                                               ; preds = %2
  br label %20

20:                                               ; preds = %19
  %21 = load ptr, ptr @g_assert_poison, align 8
  store i8 88, ptr %21, align 1
  %22 = load ptr, ptr %4, align 8
  %23 = call noundef i32 @_ZNK14XDriverRequest5causeEv(ptr noundef nonnull align 4 dereferenceable(8) %22)
  %24 = call noundef ptr @_ZN7GCCause9to_stringENS_5CauseE(i32 noundef %23)
  call void (i32, ptr, i32, ptr, ...) @_Z12report_fatal11VMErrorTypePKciS1_z(i32 noundef -536870912, ptr noundef @.str.31, i32 noundef 268, ptr noundef @.str.32, ptr noundef %24) #9
  unreachable

25:                                               ; No predecessors!
  br label %26

26:                                               ; preds = %25, %16, %14, %11, %8
  ret void
}