; Function Attrs: mustprogress nounwind uwtable
define hidden void @_ZN7XDriver7collectERK14XDriverRequest(ptr noundef nonnull align 8 dereferenceable(1216) %0, ptr noundef nonnull align 4 dereferenceable(8) %1) local_unnamed_addr #4 align 2 {
  %3 = alloca i8, align 1
  %4 = load i32, ptr %1, align 4
  switch i32 %4, label %25 [
    i32 7, label %5
    i32 6, label %5
    i32 8, label %5
    i32 9, label %5
    i32 23, label %5
    i32 0, label %5
    i32 1, label %5
    i32 2, label %5
    i32 4, label %5
    i32 17, label %5
    i32 15, label %5
    i32 28, label %7
    i32 29, label %7
    i32 30, label %7
    i32 31, label %7
    i32 32, label %7
    i32 33, label %7
    i32 14, label %7
    i32 16, label %7
    i32 5, label %15
    i32 10, label %17
  ]

5:                                                ; preds = %2, %2, %2, %2, %2, %2, %2, %2, %2, %2, %2
  %6 = getelementptr inbounds i8, ptr %0, i64 920
  tail call void @_ZN12XMessagePortI14XDriverRequestE9send_syncERKS0_(ptr noundef nonnull align 8 dereferenceable(152) %6, ptr noundef nonnull align 4 dereferenceable(8) %1)
  br label %29

7:                                                ; preds = %2, %2, %2, %2, %2, %2, %2, %2
  %8 = getelementptr inbounds i8, ptr %0, i64 920
  tail call void @_ZN5Mutex28lock_without_safepoint_checkEv(ptr noundef nonnull align 8 dereferenceable(104) %8) #12
  %9 = getelementptr inbounds i8, ptr %0, i64 1024
  %10 = load i8, ptr %9, align 8
  %11 = trunc i8 %10 to i1
  br i1 %11, label %_ZN12XMessagePortI14XDriverRequestE10send_asyncERKS0_.exit, label %12

12:                                               ; preds = %7
  %13 = getelementptr inbounds i8, ptr %0, i64 1028
  %14 = load i64, ptr %1, align 4
  store i64 %14, ptr %13, align 4
  store i8 1, ptr %9, align 8
  tail call void @_ZN7Monitor6notifyEv(ptr noundef nonnull align 8 dereferenceable(104) %8) #12
  br label %_ZN12XMessagePortI14XDriverRequestE10send_asyncERKS0_.exit

_ZN12XMessagePortI14XDriverRequestE10send_asyncERKS0_.exit: ; preds = %7, %12
  tail call void @_ZN5Mutex6unlockEv(ptr noundef nonnull align 8 dereferenceable(104) %8) #12
  br label %29

15:                                               ; preds = %2
  %16 = getelementptr inbounds i8, ptr %0, i64 1072
  call void @llvm.lifetime.start.p0(i64 1, ptr nonnull %3)
  store i8 1, ptr %3, align 1
  call void @_ZN12XMessagePortIbE9send_syncERKb(ptr noundef nonnull align 8 dereferenceable(144) %16, ptr noundef nonnull align 1 dereferenceable(1) %3)
  call void @llvm.lifetime.end.p0(i64 1, ptr nonnull %3)
  br label %29

17:                                               ; preds = %2
  tail call void @_ZN11XBreakpoint8start_gcEv() #12
  %18 = getelementptr inbounds i8, ptr %0, i64 920
  tail call void @_ZN5Mutex28lock_without_safepoint_checkEv(ptr noundef nonnull align 8 dereferenceable(104) %18) #12
  %19 = getelementptr inbounds i8, ptr %0, i64 1024
  %20 = load i8, ptr %19, align 8
  %21 = trunc i8 %20 to i1
  br i1 %21, label %_ZN12XMessagePortI14XDriverRequestE10send_asyncERKS0_.exit6, label %22

22:                                               ; preds = %17
  %23 = getelementptr inbounds i8, ptr %0, i64 1028
  %24 = load i64, ptr %1, align 4
  store i64 %24, ptr %23, align 4
  store i8 1, ptr %19, align 8
  tail call void @_ZN7Monitor6notifyEv(ptr noundef nonnull align 8 dereferenceable(104) %18) #12
  br label %_ZN12XMessagePortI14XDriverRequestE10send_asyncERKS0_.exit6

_ZN12XMessagePortI14XDriverRequestE10send_asyncERKS0_.exit6: ; preds = %17, %22
  tail call void @_ZN5Mutex6unlockEv(ptr noundef nonnull align 8 dereferenceable(104) %18) #12
  br label %29

25:                                               ; preds = %2
  %26 = load ptr, ptr @g_assert_poison, align 8
  store i8 88, ptr %26, align 1
  %27 = load i32, ptr %1, align 4
  %28 = tail call noundef ptr @_ZN7GCCause9to_stringENS_5CauseE(i32 noundef %27) #12
  tail call void (i32, ptr, i32, ptr, ...) @_Z12report_fatal11VMErrorTypePKciS1_z(i32 noundef -536870912, ptr noundef nonnull @.str.31, i32 noundef 268, ptr noundef nonnull @.str.32, ptr noundef %28) #13
  unreachable

29:                                               ; preds = %_ZN12XMessagePortI14XDriverRequestE10send_asyncERKS0_.exit6, %15, %_ZN12XMessagePortI14XDriverRequestE10send_asyncERKS0_.exit, %5
  ret void
}